(dp0
S'stage_4'
p1
(dp2
S'places_table'
p3
(dp4
S'index_place'
p5
(lp6
(dp7
S'color'
p8
S'icons/255_157_60.png'
p9
sS'place'
p10
I184
sS'treaty'
p11
S''
p12
sa(dp13
g8
g9
sg10
I168
sg11
g12
sa(dp14
g8
g9
sg10
I152
sg11
g12
sa(dp15
g8
g9
sg10
I136
sg11
g12
sa(dp16
g8
S'icons/0_255_128.png'
p17
sg10
I200
sg11
g12
sa(dp18
g8
S'icons/0_162_232.png'
p19
sg10
I120
sg11
g12
sa(dp20
g8
g9
sg10
I119
sg11
g12
sa(dp21
g8
g9
sg10
I118
sg11
g12
sa(dp22
g8
g9
sg10
I117
sg11
g12
sa(dp23
g8
g9
sg10
I116
sg11
g12
sa(dp24
g8
g9
sg10
I122
sg11
g12
sa(dp25
g8
g9
sg10
I121
sg11
g12
sa(dp26
g8
g9
sg10
I123
sg11
g12
sa(dp27
g8
g9
sg10
I124
sg11
g12
sa(dp28
g8
g12
sg10
I125
sg11
S'icons/0_255_128_treaty.png'
p29
sa(dp30
g8
g12
sg10
I115
sg11
g29
sassS'functions'
p31
(lp32
(dp33
S'blocks'
p34
I5
sasS'start_end'
p35
(dp36
S'end_points'
p37
(lp38
I125
aI115
asS'start_point'
p39
(dp40
S'position'
p41
I200
sS'direction'
p42
S's'
p43
sssS'brushes'
p44
(lp45
ssS'stage_1'
p46
(dp47
S'places_table'
p48
(dp49
S'index_place'
p50
(lp51
(dp52
S'color'
p53
S'icons/0_162_232.png'
p54
sS'place'
p55
I132
sS'treaty'
p56
g12
sa(dp57
g53
S'icons/0_255_128.png'
p58
sg55
I134
sg56
g12
sa(dp59
g53
S'icons/255_157_60.png'
p60
sg55
I133
sg56
g12
sa(dp61
g53
g60
sg55
I135
sg56
g12
sa(dp62
g53
g54
sg55
I136
sg56
g12
sa(dp63
g53
g60
sg55
I137
sg56
g12
sa(dp64
g53
g12
sg55
I138
sg56
S'icons/0_255_128_treaty.png'
p65
sassS'functions'
p66
(lp67
(dp68
S'blocks'
p69
I2
sasS'start_end'
p70
(dp71
S'end_points'
p72
(lp73
I138
asS'start_point'
p74
(dp75
S'position'
p76
I132
sS'direction'
p77
S'w'
p78
sssS'brushes'
p79
(lp80
ssS'stage_2'
p81
(dp82
S'places_table'
p83
(dp84
S'index_place'
p85
(lp86
(dp87
S'color'
p88
S'icons/0_255_128.png'
p89
sS'place'
p90
I203
sS'treaty'
p91
g12
sa(dp92
g88
g89
sg90
I187
sg91
g12
sa(dp93
g88
g89
sg90
I186
sg91
g12
sa(dp94
g88
g89
sg90
I170
sg91
g12
sa(dp95
g88
g89
sg90
I169
sg91
g12
sa(dp96
g88
g89
sg90
I153
sg91
g12
sa(dp97
g88
g89
sg90
I152
sg91
g12
sa(dp98
g88
g89
sg90
I136
sg91
g12
sa(dp99
g88
g89
sg90
I135
sg91
g12
sa(dp100
g88
g89
sg90
I119
sg91
g12
sa(dp101
g88
g89
sg90
I118
sg91
g12
sa(dp102
g88
g89
sg90
I102
sg91
g12
sa(dp103
g88
g89
sg90
I101
sg91
g12
sa(dp104
g88
g89
sg90
I85
sg91
g12
sa(dp105
g88
g89
sg90
I84
sg91
g12
sa(dp106
g88
g89
sg90
I68
sg91
g12
sa(dp107
g88
g12
sg90
I67
sg91
S'icons/0_255_128_treaty.png'
p108
sassS'functions'
p109
(lp110
(dp111
S'blocks'
p112
I5
sasS'start_end'
p113
(dp114
S'end_points'
p115
(lp116
I67
asS'start_point'
p117
(dp118
S'position'
p119
I203
sS'direction'
p120
S's'
p121
sssS'brushes'
p122
(lp123
ssS'stage_3'
p124
(dp125
S'places_table'
p126
(dp127
S'index_place'
p128
(lp129
(dp130
S'color'
p131
S'icons/0_162_232.png'
p132
sS'place'
p133
I83
sS'treaty'
p134
g12
sa(dp135
g131
g132
sg133
I99
sg134
g12
sa(dp136
g131
g132
sg133
I100
sg134
g12
sa(dp137
g131
g132
sg133
I116
sg134
g12
sa(dp138
g131
g132
sg133
I117
sg134
g12
sa(dp139
g131
g132
sg133
I92
sg134
g12
sa(dp140
g131
g132
sg133
I93
sg134
g12
sa(dp141
g131
g132
sg133
I108
sg134
g12
sa(dp142
g131
g132
sg133
I107
sg134
g12
sa(dp143
g131
g132
sg133
I123
sg134
g12
sa(dp144
g131
g132
sg133
I122
sg134
g12
sa(dp145
g131
g132
sg133
I138
sg134
g12
sa(dp146
g131
g132
sg133
I137
sg134
g12
sa(dp147
g131
g132
sg133
I134
sg134
g12
sa(dp148
g131
g132
sg133
I133
sg134
g12
sa(dp149
g131
g132
sg133
I150
sg134
g12
sa(dp150
g131
g132
sg133
I151
sg134
g12
sa(dp151
g131
g132
sg133
I152
sg134
g12
sa(dp152
g131
g132
sg133
I153
sg134
g12
sa(dp153
g131
S'icons/255_157_60.png'
p154
sg133
I168
sg134
g12
sa(dp155
g131
g154
sg133
I167
sg134
g12
sa(dp156
g131
g12
sg133
I82
sg134
S'icons/0_162_232_treaty.png'
p157
sassS'functions'
p158
(lp159
(dp160
S'blocks'
p161
I5
sasS'start_end'
p162
(dp163
S'end_points'
p164
(lp165
I82
asS'start_point'
p166
(dp167
S'position'
p168
I93
sS'direction'
p169
S'e'
p170
sssS'brushes'
p171
(lp172
ssS'stage_8'
p173
(dp174
S'places_table'
p175
(dp176
S'index_place'
p177
(lp178
(dp179
S'color'
p180
S'icons/255_157_60.png'
p181
sS'place'
p182
I154
sS'treaty'
p183
g12
sa(dp184
g180
g181
sg182
I138
sg183
g12
sa(dp185
g180
g181
sg182
I117
sg183
g12
sa(dp186
g180
g181
sg182
I101
sg183
g12
sa(dp187
g180
g181
sg182
I89
sg183
g12
sa(dp188
g180
g181
sg182
I88
sg183
g12
sa(dp189
g180
g181
sg182
I86
sg183
g12
sa(dp190
g180
g181
sg182
I106
sg183
g12
sa(dp191
g180
S'icons/0_162_232.png'
p192
sg182
I122
sg183
g12
sa(dp193
g180
g192
sg182
I90
sg183
g12
sa(dp194
g180
g192
sg182
I87
sg183
g12
sa(dp195
g180
g192
sg182
I85
sg183
g12
sa(dp196
g180
g181
sg182
I169
sg183
g12
sa(dp197
g180
g181
sg182
I167
sg183
g12
sa(dp198
g180
g181
sg182
I166
sg183
g12
sa(dp199
g180
g192
sg182
I170
sg183
g12
sa(dp200
g180
g192
sg182
I168
sg183
g12
sa(dp201
g180
g192
sg182
I165
sg183
g12
sa(dp202
g180
g181
sg182
I152
sg183
g12
sa(dp203
g180
g181
sg182
I151
sg183
g12
sa(dp204
g180
g181
sg182
I137
sg183
g12
sa(dp205
g180
g181
sg182
I121
sg183
g12
sa(dp206
g180
g181
sg182
I136
sg183
g12
sa(dp207
g180
g181
sg182
I135
sg183
g12
sa(dp208
g180
g181
sg182
I120
sg183
g12
sa(dp209
g180
g181
sg182
I119
sg183
g12
sa(dp210
g180
g181
sg182
I104
sg183
g12
sa(dp211
g180
g181
sg182
I103
sg183
g12
sa(dp212
g180
g181
sg182
I118
sg183
g12
sa(dp213
g180
g181
sg182
I134
sg183
g12
sa(dp214
g180
g192
sg182
I133
sg183
g12
sa(dp215
g180
g181
sg182
I149
sg183
g12
sa(dp216
g180
g12
sg182
I183
sg183
S'icons/0_255_128_treaty.png'
p217
sa(dp218
g180
g12
sg182
I72
sg183
g217
sa(dp219
g180
g12
sg182
I116
sg183
g217
sa(dp220
g180
g12
sg182
I139
sg183
g217
sassS'functions'
p221
(lp222
(dp223
S'blocks'
p224
I5
sasS'start_end'
p225
(dp226
S'end_points'
p227
(lp228
I139
aI183
aI116
aI72
asS'start_point'
p229
(dp230
S'position'
p231
I120
sS'direction'
p232
S'e'
p233
sssS'brushes'
p234
(lp235
ssS'stage_9'
p236
(dp237
S'places_table'
p238
(dp239
S'index_place'
p240
(lp241
(dp242
S'color'
p243
g12
sS'place'
p244
I223
sS'treaty'
p245
S'icons/0_255_128_treaty.png'
p246
sa(dp247
g243
g12
sg244
I238
sg245
g246
sa(dp248
g243
S'icons/0_162_232.png'
p249
sg244
I222
sg245
g12
sa(dp250
g243
S'icons/255_157_60.png'
p251
sg244
I221
sg245
g12
sa(dp252
g243
g251
sg244
I236
sg245
g12
sa(dp253
g243
g249
sg244
I220
sg245
g12
sa(dp254
g243
g12
sg244
I252
sg245
g246
sa(dp255
g243
g251
sg244
I219
sg245
g12
sa(dp256
g243
g251
sg244
I218
sg245
g12
sa(dp257
g243
g251
sg244
I217
sg245
g12
sa(dp258
g243
g251
sg244
I216
sg245
g12
sa(dp259
g243
g249
sg244
I215
sg245
g12
sa(dp260
g243
g251
sg244
I231
sg245
g12
sa(dp261
g243
g12
sg244
I247
sg245
g246
sa(dp262
g243
g251
sg244
I214
sg245
g12
sa(dp263
g243
g249
sg244
I213
sg245
g12
sa(dp264
g243
g12
sg244
I229
sg245
g246
sa(dp265
g243
g251
sg244
I228
sg245
g12
sa(dp266
g243
g251
sg244
I227
sg245
g12
sa(dp267
g243
g251
sg244
I226
sg245
g12
sa(dp268
g243
g251
sg244
I212
sg245
g12
sa(dp269
g243
g251
sg244
I211
sg245
g12
sa(dp270
g243
g251
sg244
I210
sg245
g12
sa(dp271
g243
g249
sg244
I225
sg245
g12
sa(dp272
g243
g249
sg244
I209
sg245
g12
sa(dp273
g243
g12
sg244
I241
sg245
g246
sa(dp274
g243
g12
sg244
I224
sg245
g246
sa(dp275
g243
g12
sg244
I208
sg245
g246
sa(dp276
g243
g251
sg244
I206
sg245
g12
sa(dp277
g243
g251
sg244
I190
sg245
g12
sa(dp278
g243
g251
sg244
I204
sg245
g12
sa(dp279
g243
g251
sg244
I188
sg245
g12
sa(dp280
g243
g251
sg244
I199
sg245
g12
sa(dp281
g243
g251
sg244
I183
sg245
g12
sa(dp282
g243
g251
sg244
I167
sg245
g12
sa(dp283
g243
g251
sg244
I197
sg245
g12
sa(dp284
g243
g251
sg244
I181
sg245
g12
sa(dp285
g243
g251
sg244
I165
sg245
g12
sa(dp286
g243
g251
sg244
I193
sg245
g12
sa(dp287
g243
g251
sg244
I177
sg245
g12
sa(dp288
g243
g12
sg244
I179
sg245
g246
sa(dp289
g243
g12
sg244
I161
sg245
g246
sa(dp290
g243
g12
sg244
I145
sg245
g246
sa(dp291
g243
g251
sg244
I163
sg245
g12
sa(dp292
g243
g251
sg244
I146
sg245
g12
sa(dp293
g243
g249
sg244
I147
sg245
g12
sa(dp294
g243
g12
sg244
I148
sg245
g246
sa(dp295
g243
g12
sg244
I149
sg245
g246
sa(dp296
g243
g12
sg244
I150
sg245
g246
sa(dp297
g243
g249
sg244
I151
sg245
g12
sa(dp298
g243
S'icons/0_255_128.png'
p299
sg244
I152
sg245
g12
sa(dp300
g243
g299
sg244
I155
sg245
g12
sa(dp301
g243
g12
sg244
I140
sg245
g246
sa(dp302
g243
g251
sg244
I172
sg245
g12
sa(dp303
g243
g251
sg244
I156
sg245
g12
sa(dp304
g243
g12
sg244
I173
sg245
g246
sa(dp305
g243
g12
sg244
I175
sg245
g246
sa(dp306
g243
g249
sg244
I174
sg245
g12
sa(dp307
g243
g251
sg244
I158
sg245
g12
sa(dp308
g243
g12
sg244
I142
sg245
g246
sa(dp309
g243
g299
sg244
I126
sg245
g12
sa(dp310
g243
g299
sg244
I111
sg245
g12
sa(dp311
g243
g251
sg244
I109
sg245
g12
sa(dp312
g243
g251
sg244
I108
sg245
g12
sa(dp313
g243
g249
sg244
I107
sg245
g12
sa(dp314
g243
g249
sg244
I110
sg245
g12
sa(dp315
g243
g251
sg244
I123
sg245
g12
sa(dp316
g243
g251
sg244
I139
sg245
g12
sa(dp317
g243
g251
sg244
I106
sg245
g12
sa(dp318
g243
g251
sg244
I105
sg245
g12
sa(dp319
g243
g251
sg244
I104
sg245
g12
sa(dp320
g243
g249
sg244
I103
sg245
g12
sa(dp321
g243
g249
sg244
I99
sg245
g12
sa(dp322
g243
g249
sg244
I97
sg245
g12
sa(dp323
g243
g249
sg244
I113
sg245
g12
sa(dp324
g243
g12
sg244
I114
sg245
g246
sa(dp325
g243
g12
sg244
I112
sg245
g246
sa(dp326
g243
g12
sg244
I96
sg245
g246
sa(dp327
g243
g12
sg244
I129
sg245
g246
sa(dp328
g243
g251
sg244
I131
sg245
g12
sa(dp329
g243
g251
sg244
I115
sg245
g12
sa(dp330
g243
g251
sg244
I98
sg245
g12
sa(dp331
g243
g251
sg244
I100
sg245
g12
sa(dp332
g243
g251
sg244
I101
sg245
g12
sa(dp333
g243
g251
sg244
I102
sg245
g12
sa(dp334
g243
g251
sg244
I119
sg245
g12
sa(dp335
g243
g251
sg244
I135
sg245
g12
sa(dp336
g243
g251
sg244
I87
sg245
g12
sa(dp337
g243
g251
sg244
I71
sg245
g12
sa(dp338
g243
g251
sg244
I55
sg245
g12
sa(dp339
g243
g251
sg244
I39
sg245
g12
sa(dp340
g243
g251
sg244
I23
sg245
g12
sa(dp341
g243
g251
sg244
I7
sg245
g12
sa(dp342
g243
g251
sg244
I91
sg245
g12
sa(dp343
g243
g251
sg244
I75
sg245
g12
sa(dp344
g243
g251
sg244
I59
sg245
g12
sa(dp345
g243
g251
sg244
I94
sg245
g12
sa(dp346
g243
g251
sg244
I83
sg245
g12
sa(dp347
g243
g251
sg244
I67
sg245
g12
sa(dp348
g243
g251
sg244
I81
sg245
g12
sa(dp349
g243
g251
sg244
I50
sg245
g12
sa(dp350
g243
g251
sg244
I35
sg245
g12
sa(dp351
g243
g251
sg244
I27
sg245
g12
sa(dp352
g243
g249
sg244
I43
sg245
g12
sa(dp353
g243
g249
sg244
I51
sg245
g12
sa(dp354
g243
g12
sg244
I65
sg245
g246
sa(dp355
g243
g12
sg244
I49
sg245
g246
sa(dp356
g243
g12
sg244
I52
sg245
g246
sa(dp357
g243
g12
sg244
I19
sg245
g246
sa(dp358
g243
g299
sg244
I11
sg245
g12
sa(dp359
g243
g299
sg244
I44
sg245
g12
sa(dp360
g243
g299
sg244
I42
sg245
g12
sa(dp361
g243
g299
sg244
I78
sg245
g12
sassS'functions'
p362
(lp363
(dp364
S'blocks'
p365
I5
sasS'start_end'
p366
(dp367
S'end_points'
p368
(lp369
I223
aI238
aI252
aI247
aI229
aI241
aI224
aI208
aI179
aI161
aI145
aI129
aI114
aI112
aI96
aI65
aI49
aI19
aI52
aI148
aI149
aI150
aI140
aI173
aI142
aI175
asS'start_point'
p370
(dp371
S'position'
p372
I7
sS'direction'
p373
S'n'
p374
sssS'brushes'
p375
(lp376
ssS'stage_10'
p377
(dp378
S'places_table'
p379
(dp380
S'index_place'
p381
(lp382
(dp383
S'color'
p384
S'icons/255_157_60.png'
p385
sS'place'
p386
I189
sS'treaty'
p387
g12
sa(dp388
g384
g385
sg386
I188
sg387
g12
sa(dp389
g384
g385
sg386
I172
sg387
g12
sa(dp390
g384
g385
sg386
I171
sg387
g12
sa(dp391
g384
g385
sg386
I155
sg387
g12
sa(dp392
g384
g385
sg386
I154
sg387
g12
sa(dp393
g384
g385
sg386
I138
sg387
g12
sa(dp394
g384
g385
sg386
I137
sg387
g12
sa(dp395
g384
g385
sg386
I121
sg387
g12
sa(dp396
g384
g385
sg386
I120
sg387
g12
sa(dp397
g384
S'icons/0_162_232.png'
p398
sg386
I104
sg387
g12
sa(dp399
g384
g385
sg386
I103
sg387
g12
sa(dp400
g384
g385
sg386
I102
sg387
g12
sa(dp401
g384
g385
sg386
I101
sg387
g12
sa(dp402
g384
g385
sg386
I100
sg387
g12
sa(dp403
g384
g385
sg386
I99
sg387
g12
sa(dp404
g384
g385
sg386
I98
sg387
g12
sa(dp405
g384
g385
sg386
I97
sg387
g12
sa(dp406
g384
g12
sg386
I205
sg387
S'icons/255_157_60_treaty.png'
p407
sassS'functions'
p408
(lp409
(dp410
S'blocks'
p411
I6
sasS'start_end'
p412
(dp413
S'end_points'
p414
(lp415
I205
asS'start_point'
p416
(dp417
S'position'
p418
I97
sS'direction'
p419
S'w'
p420
sssS'brushes'
p421
(lp422
ss.